; Function Attrs: nounwind uwtable
define i32 @Tls13UpdateKeys(ptr noundef %0) local_unnamed_addr #0 {
  %2 = icmp eq ptr %0, null
  br i1 %2, label %9, label %3

3:                                                ; preds = %1
  %4 = getelementptr inbounds nuw i8, ptr %0, i64 710
  %5 = load i16, ptr %4, align 2
  %6 = tail call i32 @IsAtLeastTLSv1_3(i16 %5) #11
  %.not = icmp eq i32 %6, 0
  br i1 %.not, label %9, label %7

7:                                                ; preds = %3
  %8 = tail call i32 @SendTls13KeyUpdate(ptr noundef nonnull %0)
  br label %9

9:                                                ; preds = %1, %3, %7
  %.0 = phi i32 [ %8, %7 ], [ -173, %3 ], [ -173, %1 ]
  ret i32 %.0
}